target datalayout = "e-m:e-p270:32:32-p271:32:32-p272:64:64-i64:64-i128:128-f80:128-n8:16:32:64-S128"
target triple = "x86_64-pc-linux-gnu"

%struct.mbedtls_ssl_key_set = type { [32 x i8], [32 x i8], [16 x i8], [16 x i8], i64, i64 }
%struct.mbedtls_md_context_t = type { ptr, ptr, ptr }
%struct.mbedtls_ssl_ciphersuite_t = type { i32, ptr, i8, i8, i8, i8, i16, i16 }
%struct.mbedtls_ssl_transform = type { i64, i64, i64, i64, i64, [16 x i8], [16 x i8], %struct.mbedtls_md_context_t, %struct.mbedtls_md_context_t, i32, i32, %struct.mbedtls_cipher_context_t, %struct.mbedtls_cipher_context_t, i8, i8, [32 x i8], [32 x i8], [64 x i8] }
%struct.mbedtls_cipher_context_t = type { ptr, i32, i32, ptr, ptr, [16 x i8], i64, [16 x i8], i64, ptr, ptr }
%struct.mbedtls_cipher_info_t = type { ptr, i32 }

@.str = private unnamed_addr constant [128 x i8] c"generated/home/dtcxzyw/WorkSpace/Projects/compilers/llvm-opt-benchmark/bench/lief/bench_build/mbed_src/library/ssl_tls13_keys.c\00", align 1
@.str.12 = private unnamed_addr constant [34 x i8] c"ciphersuite info for %d not found\00", align 1
@.str.13 = private unnamed_addr constant [29 x i8] c"cipher info for %u not found\00", align 1
@.str.14 = private unnamed_addr constant [21 x i8] c"mbedtls_cipher_setup\00", align 1
@.str.15 = private unnamed_addr constant [22 x i8] c"mbedtls_cipher_setkey\00", align 1

; Function Attrs: inlinehint nounwind uwtable
define internal i64 @mbedtls_cipher_info_get_key_bitlen(ptr noundef %0) #5 {
  %2 = alloca i64, align 8
  %3 = alloca ptr, align 8
  store ptr %0, ptr %3, align 8, !tbaa !51
  %4 = load ptr, ptr %3, align 8, !tbaa !51
  %5 = icmp eq ptr %4, null
  br i1 %5, label %6, label %7

6:                                                ; preds = %1
  store i64 0, ptr %2, align 8
  br label %15

7:                                                ; preds = %1
  %8 = load ptr, ptr %3, align 8, !tbaa !51
  %9 = getelementptr inbounds nuw %struct.mbedtls_cipher_info_t, ptr %8, i32 0, i32 1
  %10 = load i32, ptr %9, align 8
  %11 = lshr i32 %10, 8
  %12 = and i32 %11, 15
  %13 = zext i32 %12 to i64
  %14 = shl i64 %13, 6
  store i64 %14, ptr %2, align 8
  br label %15

15:                                               ; preds = %7, %6
  %16 = load i64, ptr %2, align 8
  ret i64 %16
}

; Function Attrs: nounwind uwtable
define hidden i32 @mbedtls_ssl_tls13_populate_transform(ptr noundef %0, i32 noundef %1, i32 noundef %2, ptr noundef %3, ptr noundef %4) #0 {
  %6 = alloca i32, align 4
  %7 = alloca ptr, align 8
  %8 = alloca i32, align 4
  %9 = alloca i32, align 4
  %10 = alloca ptr, align 8
  %11 = alloca ptr, align 8
  %12 = alloca i32, align 4
  %13 = alloca ptr, align 8
  %14 = alloca ptr, align 8
  %15 = alloca ptr, align 8
  %16 = alloca ptr, align 8
  %17 = alloca ptr, align 8
  %18 = alloca ptr, align 8
  %19 = alloca i32, align 4
  store ptr %0, ptr %7, align 8, !tbaa !48
  store i32 %1, ptr %8, align 4, !tbaa !3
  store i32 %2, ptr %9, align 4, !tbaa !3
  store ptr %3, ptr %10, align 8, !tbaa !15
  store ptr %4, ptr %11, align 8, !tbaa !21
  call void @llvm.lifetime.start.p0(i64 4, ptr %12) #8
  call void @llvm.lifetime.start.p0(i64 8, ptr %13) #8
  call void @llvm.lifetime.start.p0(i64 8, ptr %14) #8
  call void @llvm.lifetime.start.p0(i64 8, ptr %15) #8
  call void @llvm.lifetime.start.p0(i64 8, ptr %16) #8
  call void @llvm.lifetime.start.p0(i64 8, ptr %17) #8
  call void @llvm.lifetime.start.p0(i64 8, ptr %18) #8
  %20 = load i32, ptr %9, align 4, !tbaa !3
  %21 = call ptr @mbedtls_ssl_ciphersuite_from_id(i32 noundef %20)
  store ptr %21, ptr %14, align 8, !tbaa !49
  %22 = load ptr, ptr %14, align 8, !tbaa !49
  %23 = icmp eq ptr %22, null
  br i1 %23, label %24, label %27

24:                                               ; preds = %5
  %25 = load ptr, ptr %11, align 8, !tbaa !21
  %26 = load i32, ptr %9, align 4, !tbaa !3
  call void (ptr, i32, ptr, i32, ptr, ...) @mbedtls_debug_print_msg(ptr noundef %25, i32 noundef 1, ptr noundef @.str, i32 noundef 956, ptr noundef @.str.12, i32 noundef %26)
  store i32 -28928, ptr %6, align 4
  store i32 1, ptr %19, align 4
  br label %169

27:                                               ; preds = %5
  %28 = load ptr, ptr %14, align 8, !tbaa !49
  %29 = getelementptr inbounds nuw %struct.mbedtls_ssl_ciphersuite_t, ptr %28, i32 0, i32 2
  %30 = load i8, ptr %29, align 8, !tbaa !50
  %31 = zext i8 %30 to i32
  %32 = call ptr @mbedtls_cipher_info_from_type(i32 noundef %31)
  store ptr %32, ptr %13, align 8, !tbaa !51
  %33 = load ptr, ptr %13, align 8, !tbaa !51
  %34 = icmp eq ptr %33, null
  br i1 %34, label %35, label %41

35:                                               ; preds = %27
  %36 = load ptr, ptr %11, align 8, !tbaa !21
  %37 = load ptr, ptr %14, align 8, !tbaa !49
  %38 = getelementptr inbounds nuw %struct.mbedtls_ssl_ciphersuite_t, ptr %37, i32 0, i32 2
  %39 = load i8, ptr %38, align 8, !tbaa !50
  %40 = zext i8 %39 to i32
  call void (ptr, i32, ptr, i32, ptr, ...) @mbedtls_debug_print_msg(ptr noundef %36, i32 noundef 1, ptr noundef @.str, i32 noundef 964, ptr noundef @.str.13, i32 noundef %40)
  store i32 -28928, ptr %6, align 4
  store i32 1, ptr %19, align 4
  br label %169

41:                                               ; preds = %27
  %42 = load ptr, ptr %7, align 8, !tbaa !48
  %43 = getelementptr inbounds nuw %struct.mbedtls_ssl_transform, ptr %42, i32 0, i32 11
  %44 = load ptr, ptr %13, align 8, !tbaa !51
  %45 = call i32 @mbedtls_cipher_setup(ptr noundef %43, ptr noundef %44)
  store i32 %45, ptr %12, align 4, !tbaa !3
  %46 = icmp ne i32 %45, 0
  br i1 %46, label %47, label %51

47:                                               ; preds = %41
  %48 = load ptr, ptr %11, align 8, !tbaa !21
  %49 = load i32, ptr %12, align 4, !tbaa !3
  call void @mbedtls_debug_print_ret(ptr noundef %48, i32 noundef 1, ptr noundef @.str, i32 noundef 973, ptr noundef @.str.14, i32 noundef %49)
  %50 = load i32, ptr %12, align 4, !tbaa !3
  store i32 %50, ptr %6, align 4
  store i32 1, ptr %19, align 4
  br label %169

51:                                               ; preds = %41
  %52 = load ptr, ptr %7, align 8, !tbaa !48
  %53 = getelementptr inbounds nuw %struct.mbedtls_ssl_transform, ptr %52, i32 0, i32 12
  %54 = load ptr, ptr %13, align 8, !tbaa !51
  %55 = call i32 @mbedtls_cipher_setup(ptr noundef %53, ptr noundef %54)
  store i32 %55, ptr %12, align 4, !tbaa !3
  %56 = icmp ne i32 %55, 0
  br i1 %56, label %57, label %61

57:                                               ; preds = %51
  %58 = load ptr, ptr %11, align 8, !tbaa !21
  %59 = load i32, ptr %12, align 4, !tbaa !3
  call void @mbedtls_debug_print_ret(ptr noundef %58, i32 noundef 1, ptr noundef @.str, i32 noundef 979, ptr noundef @.str.14, i32 noundef %59)
  %60 = load i32, ptr %12, align 4, !tbaa !3
  store i32 %60, ptr %6, align 4
  store i32 1, ptr %19, align 4
  br label %169

61:                                               ; preds = %51
  %62 = load i32, ptr %8, align 4, !tbaa !3
  %63 = icmp eq i32 %62, 1
  br i1 %63, label %64, label %77

64:                                               ; preds = %61
  %65 = load ptr, ptr %10, align 8, !tbaa !15
  %66 = getelementptr inbounds nuw %struct.mbedtls_ssl_key_set, ptr %65, i32 0, i32 1
  %67 = getelementptr inbounds [32 x i8], ptr %66, i64 0, i64 0
  store ptr %67, ptr %15, align 8, !tbaa !7
  %68 = load ptr, ptr %10, align 8, !tbaa !15
  %69 = getelementptr inbounds nuw %struct.mbedtls_ssl_key_set, ptr %68, i32 0, i32 0
  %70 = getelementptr inbounds [32 x i8], ptr %69, i64 0, i64 0
  store ptr %70, ptr %17, align 8, !tbaa !7
  %71 = load ptr, ptr %10, align 8, !tbaa !15
  %72 = getelementptr inbounds nuw %struct.mbedtls_ssl_key_set, ptr %71, i32 0, i32 3
  %73 = getelementptr inbounds [16 x i8], ptr %72, i64 0, i64 0
  store ptr %73, ptr %16, align 8, !tbaa !7
  %74 = load ptr, ptr %10, align 8, !tbaa !15
  %75 = getelementptr inbounds nuw %struct.mbedtls_ssl_key_set, ptr %74, i32 0, i32 2
  %76 = getelementptr inbounds [16 x i8], ptr %75, i64 0, i64 0
  store ptr %76, ptr %18, align 8, !tbaa !7
  br label %95

77:                                               ; preds = %61
  %78 = load i32, ptr %8, align 4, !tbaa !3
  %79 = icmp eq i32 %78, 0
  br i1 %79, label %80, label %93

80:                                               ; preds = %77
  %81 = load ptr, ptr %10, align 8, !tbaa !15
  %82 = getelementptr inbounds nuw %struct.mbedtls_ssl_key_set, ptr %81, i32 0, i32 0
  %83 = getelementptr inbounds [32 x i8], ptr %82, i64 0, i64 0
  store ptr %83, ptr %15, align 8, !tbaa !7
  %84 = load ptr, ptr %10, align 8, !tbaa !15
  %85 = getelementptr inbounds nuw %struct.mbedtls_ssl_key_set, ptr %84, i32 0, i32 1
  %86 = getelementptr inbounds [32 x i8], ptr %85, i64 0, i64 0
  store ptr %86, ptr %17, align 8, !tbaa !7
  %87 = load ptr, ptr %10, align 8, !tbaa !15
  %88 = getelementptr inbounds nuw %struct.mbedtls_ssl_key_set, ptr %87, i32 0, i32 2
  %89 = getelementptr inbounds [16 x i8], ptr %88, i64 0, i64 0
  store ptr %89, ptr %16, align 8, !tbaa !7
  %90 = load ptr, ptr %10, align 8, !tbaa !15
  %91 = getelementptr inbounds nuw %struct.mbedtls_ssl_key_set, ptr %90, i32 0, i32 3
  %92 = getelementptr inbounds [16 x i8], ptr %91, i64 0, i64 0
  store ptr %92, ptr %18, align 8, !tbaa !7
  br label %94

93:                                               ; preds = %77
  store i32 -27648, ptr %6, align 4
  store i32 1, ptr %19, align 4
  br label %169

94:                                               ; preds = %80
  br label %95

95:                                               ; preds = %94, %64
  %96 = load ptr, ptr %7, align 8, !tbaa !48
  %97 = getelementptr inbounds nuw %struct.mbedtls_ssl_transform, ptr %96, i32 0, i32 5
  %98 = getelementptr inbounds [16 x i8], ptr %97, i64 0, i64 0
  %99 = load ptr, ptr %16, align 8, !tbaa !7
  %100 = load ptr, ptr %10, align 8, !tbaa !15
  %101 = getelementptr inbounds nuw %struct.mbedtls_ssl_key_set, ptr %100, i32 0, i32 5
  %102 = load i64, ptr %101, align 8, !tbaa !19
  call void @llvm.memcpy.p0.p0.i64(ptr align 8 %98, ptr align 1 %99, i64 %102, i1 false)
  %103 = load ptr, ptr %7, align 8, !tbaa !48
  %104 = getelementptr inbounds nuw %struct.mbedtls_ssl_transform, ptr %103, i32 0, i32 6
  %105 = getelementptr inbounds [16 x i8], ptr %104, i64 0, i64 0
  %106 = load ptr, ptr %18, align 8, !tbaa !7
  %107 = load ptr, ptr %10, align 8, !tbaa !15
  %108 = getelementptr inbounds nuw %struct.mbedtls_ssl_key_set, ptr %107, i32 0, i32 5
  %109 = load i64, ptr %108, align 8, !tbaa !19
  call void @llvm.memcpy.p0.p0.i64(ptr align 8 %105, ptr align 1 %106, i64 %109, i1 false)
  %110 = load ptr, ptr %7, align 8, !tbaa !48
  %111 = getelementptr inbounds nuw %struct.mbedtls_ssl_transform, ptr %110, i32 0, i32 11
  %112 = load ptr, ptr %15, align 8, !tbaa !7
  %113 = load ptr, ptr %13, align 8, !tbaa !51
  %114 = call i64 @mbedtls_cipher_info_get_key_bitlen(ptr noundef %113)
  %115 = trunc i64 %114 to i32
  %116 = call i32 @mbedtls_cipher_setkey(ptr noundef %111, ptr noundef %112, i32 noundef %115, i32 noundef 1)
  store i32 %116, ptr %12, align 4, !tbaa !3
  %117 = icmp ne i32 %116, 0
  br i1 %117, label %118, label %122

118:                                              ; preds = %95
  %119 = load ptr, ptr %11, align 8, !tbaa !21
  %120 = load i32, ptr %12, align 4, !tbaa !3
  call void @mbedtls_debug_print_ret(ptr noundef %119, i32 noundef 1, ptr noundef @.str, i32 noundef 1012, ptr noundef @.str.15, i32 noundef %120)
  %121 = load i32, ptr %12, align 4, !tbaa !3
  store i32 %121, ptr %6, align 4
  store i32 1, ptr %19, align 4
  br label %169

122:                                              ; preds = %95
  %123 = load ptr, ptr %7, align 8, !tbaa !48
  %124 = getelementptr inbounds nuw %struct.mbedtls_ssl_transform, ptr %123, i32 0, i32 12
  %125 = load ptr, ptr %17, align 8, !tbaa !7
  %126 = load ptr, ptr %13, align 8, !tbaa !51
  %127 = call i64 @mbedtls_cipher_info_get_key_bitlen(ptr noundef %126)
  %128 = trunc i64 %127 to i32
  %129 = call i32 @mbedtls_cipher_setkey(ptr noundef %124, ptr noundef %125, i32 noundef %128, i32 noundef 0)
  store i32 %129, ptr %12, align 4, !tbaa !3
  %130 = icmp ne i32 %129, 0
  br i1 %130, label %131, label %135

131:                                              ; preds = %122
  %132 = load ptr, ptr %11, align 8, !tbaa !21
  %133 = load i32, ptr %12, align 4, !tbaa !3
  call void @mbedtls_debug_print_ret(ptr noundef %132, i32 noundef 1, ptr noundef @.str, i32 noundef 1019, ptr noundef @.str.15, i32 noundef %133)
  %134 = load i32, ptr %12, align 4, !tbaa !3
  store i32 %134, ptr %6, align 4
  store i32 1, ptr %19, align 4
  br label %169

135:                                              ; preds = %122
  %136 = load ptr, ptr %14, align 8, !tbaa !49
  %137 = getelementptr inbounds nuw %struct.mbedtls_ssl_ciphersuite_t, ptr %136, i32 0, i32 5
  %138 = load i8, ptr %137, align 1, !tbaa !53
  %139 = zext i8 %138 to i32
  %140 = and i32 %139, 2
  %141 = icmp ne i32 %140, 0
  br i1 %141, label %142, label %145

142:                                              ; preds = %135
  %143 = load ptr, ptr %7, align 8, !tbaa !48
  %144 = getelementptr inbounds nuw %struct.mbedtls_ssl_transform, ptr %143, i32 0, i32 4
  store i64 8, ptr %144, align 8, !tbaa !54
  br label %148

145:                                              ; preds = %135
  %146 = load ptr, ptr %7, align 8, !tbaa !48
  %147 = getelementptr inbounds nuw %struct.mbedtls_ssl_transform, ptr %146, i32 0, i32 4
  store i64 16, ptr %147, align 8, !tbaa !54
  br label %148

148:                                              ; preds = %145, %142
  %149 = load ptr, ptr %10, align 8, !tbaa !15
  %150 = getelementptr inbounds nuw %struct.mbedtls_ssl_key_set, ptr %149, i32 0, i32 5
  %151 = load i64, ptr %150, align 8, !tbaa !19
  %152 = load ptr, ptr %7, align 8, !tbaa !48
  %153 = getelementptr inbounds nuw %struct.mbedtls_ssl_transform, ptr %152, i32 0, i32 1
  store i64 %151, ptr %153, align 8, !tbaa !58
  %154 = load ptr, ptr %7, align 8, !tbaa !48
  %155 = getelementptr inbounds nuw %struct.mbedtls_ssl_transform, ptr %154, i32 0, i32 3
  store i64 0, ptr %155, align 8, !tbaa !59
  %156 = load ptr, ptr %7, align 8, !tbaa !48
  %157 = getelementptr inbounds nuw %struct.mbedtls_ssl_transform, ptr %156, i32 0, i32 1
  %158 = load i64, ptr %157, align 8, !tbaa !58
  %159 = load ptr, ptr %7, align 8, !tbaa !48
  %160 = getelementptr inbounds nuw %struct.mbedtls_ssl_transform, ptr %159, i32 0, i32 2
  store i64 %158, ptr %160, align 8, !tbaa !60
  %161 = load ptr, ptr %7, align 8, !tbaa !48
  %162 = getelementptr inbounds nuw %struct.mbedtls_ssl_transform, ptr %161, i32 0, i32 10
  store i32 772, ptr %162, align 4, !tbaa !61
  %163 = load ptr, ptr %7, align 8, !tbaa !48
  %164 = getelementptr inbounds nuw %struct.mbedtls_ssl_transform, ptr %163, i32 0, i32 4
  %165 = load i64, ptr %164, align 8, !tbaa !54
  %166 = add i64 %165, 16
  %167 = load ptr, ptr %7, align 8, !tbaa !48
  %168 = getelementptr inbounds nuw %struct.mbedtls_ssl_transform, ptr %167, i32 0, i32 0
  store i64 %166, ptr %168, align 8, !tbaa !62
  store i32 0, ptr %6, align 4
  store i32 1, ptr %19, align 4
  br label %169

169:                                              ; preds = %148, %131, %118, %93, %57, %47, %35, %24
  call void @llvm.lifetime.end.p0(i64 8, ptr %18) #8
  call void @llvm.lifetime.end.p0(i64 8, ptr %17) #8
  call void @llvm.lifetime.end.p0(i64 8, ptr %16) #8
  call void @llvm.lifetime.end.p0(i64 8, ptr %15) #8
  call void @llvm.lifetime.end.p0(i64 8, ptr %14) #8
  call void @llvm.lifetime.end.p0(i64 8, ptr %13) #8
  call void @llvm.lifetime.end.p0(i64 4, ptr %12) #8
  %170 = load i32, ptr %6, align 4
  ret i32 %170
}