; Function Attrs: nounwind uwtable
define hidden i32 @mbedtls_ssl_tls13_populate_transform(ptr noundef %0, i32 noundef %1, i32 noundef %2, ptr noundef %3, ptr noundef %4) local_unnamed_addr #0 {
  %6 = tail call ptr @mbedtls_ssl_ciphersuite_from_id(i32 noundef %2) #8
  %7 = icmp eq ptr %6, null
  br i1 %7, label %8, label %9

8:                                                ; preds = %5
  tail call void (ptr, i32, ptr, i32, ptr, ...) @mbedtls_debug_print_msg(ptr noundef %4, i32 noundef 1, ptr noundef nonnull @.str, i32 noundef 956, ptr noundef nonnull @.str.12, i32 noundef %2) #8
  br label %60

9:                                                ; preds = %5
  %10 = getelementptr inbounds nuw i8, ptr %6, i64 16
  %11 = load i8, ptr %10, align 8, !tbaa !46
  %12 = zext i8 %11 to i32
  %13 = tail call ptr @mbedtls_cipher_info_from_type(i32 noundef %12) #8
  %14 = icmp eq ptr %13, null
  br i1 %14, label %15, label %18

15:                                               ; preds = %9
  %16 = load i8, ptr %10, align 8, !tbaa !46
  %17 = zext i8 %16 to i32
  tail call void (ptr, i32, ptr, i32, ptr, ...) @mbedtls_debug_print_msg(ptr noundef %4, i32 noundef 1, ptr noundef nonnull @.str, i32 noundef 964, ptr noundef nonnull @.str.13, i32 noundef %17) #8
  br label %60

18:                                               ; preds = %9
  %19 = getelementptr inbounds nuw i8, ptr %0, i64 128
  %20 = tail call i32 @mbedtls_cipher_setup(ptr noundef nonnull %19, ptr noundef nonnull %13) #8
  %.not = icmp eq i32 %20, 0
  br i1 %.not, label %22, label %21

21:                                               ; preds = %18
  tail call void @mbedtls_debug_print_ret(ptr noundef %4, i32 noundef 1, ptr noundef nonnull @.str, i32 noundef 973, ptr noundef nonnull @.str.14, i32 noundef %20) #8
  br label %60

22:                                               ; preds = %18
  %23 = getelementptr inbounds nuw i8, ptr %0, i64 224
  %24 = tail call i32 @mbedtls_cipher_setup(ptr noundef nonnull %23, ptr noundef nonnull %13) #8
  %.not68 = icmp eq i32 %24, 0
  br i1 %.not68, label %26, label %25

25:                                               ; preds = %22
  tail call void @mbedtls_debug_print_ret(ptr noundef %4, i32 noundef 1, ptr noundef nonnull @.str, i32 noundef 979, ptr noundef nonnull @.str.14, i32 noundef %24) #8
  br label %60

26:                                               ; preds = %22
  switch i32 %1, label %60 [
    i32 1, label %27
    i32 0, label %29
  ]

27:                                               ; preds = %26
  %28 = getelementptr inbounds nuw i8, ptr %3, i64 32
  br label %31

29:                                               ; preds = %26
  %30 = getelementptr inbounds nuw i8, ptr %3, i64 32
  br label %31

31:                                               ; preds = %29, %27
  %.sink74 = phi i64 [ 64, %29 ], [ 80, %27 ]
  %.sink73 = phi i64 [ 80, %29 ], [ 64, %27 ]
  %.059 = phi ptr [ %3, %29 ], [ %28, %27 ]
  %.057 = phi ptr [ %30, %29 ], [ %3, %27 ]
  %32 = getelementptr inbounds nuw i8, ptr %3, i64 %.sink74
  %33 = getelementptr inbounds nuw i8, ptr %3, i64 %.sink73
  %34 = getelementptr inbounds nuw i8, ptr %0, i64 40
  %35 = getelementptr inbounds nuw i8, ptr %3, i64 104
  %36 = load i64, ptr %35, align 8, !tbaa !9
  tail call void @llvm.memcpy.p0.p0.i64(ptr nonnull align 8 %34, ptr nonnull align 1 %32, i64 %36, i1 false)
  %37 = getelementptr inbounds nuw i8, ptr %0, i64 56
  %38 = load i64, ptr %35, align 8, !tbaa !9
  tail call void @llvm.memcpy.p0.p0.i64(ptr nonnull align 8 %37, ptr nonnull align 1 %33, i64 %38, i1 false)
  %39 = getelementptr i8, ptr %13, i64 8
  %.val = load i32, ptr %39, align 8
  %40 = lshr i32 %.val, 2
  %41 = and i32 %40, 960
  %42 = tail call i32 @mbedtls_cipher_setkey(ptr noundef nonnull %19, ptr noundef %.059, i32 noundef %41, i32 noundef 1) #8
  %.not69 = icmp eq i32 %42, 0
  br i1 %.not69, label %44, label %43

43:                                               ; preds = %31
  tail call void @mbedtls_debug_print_ret(ptr noundef %4, i32 noundef 1, ptr noundef nonnull @.str, i32 noundef 1012, ptr noundef nonnull @.str.15, i32 noundef %42) #8
  br label %60

44:                                               ; preds = %31
  %.val72 = load i32, ptr %39, align 8
  %45 = lshr i32 %.val72, 2
  %46 = and i32 %45, 960
  %47 = tail call i32 @mbedtls_cipher_setkey(ptr noundef nonnull %23, ptr noundef %.057, i32 noundef %46, i32 noundef 0) #8
  %.not70 = icmp eq i32 %47, 0
  br i1 %.not70, label %49, label %48

48:                                               ; preds = %44
  tail call void @mbedtls_debug_print_ret(ptr noundef %4, i32 noundef 1, ptr noundef nonnull @.str, i32 noundef 1019, ptr noundef nonnull @.str.15, i32 noundef %47) #8
  br label %60

49:                                               ; preds = %44
  %50 = getelementptr inbounds nuw i8, ptr %6, i64 19
  %51 = load i8, ptr %50, align 1, !tbaa !47
  %52 = and i8 %51, 2
  %.not71 = icmp eq i8 %52, 0
  %spec.select = select i1 %.not71, i64 16, i64 8
  %53 = getelementptr inbounds nuw i8, ptr %0, i64 32
  store i64 %spec.select, ptr %53, align 8, !tbaa !48
  %54 = load i64, ptr %35, align 8, !tbaa !9
  %55 = getelementptr inbounds nuw i8, ptr %0, i64 8
  store i64 %54, ptr %55, align 8, !tbaa !53
  %56 = getelementptr inbounds nuw i8, ptr %0, i64 24
  store i64 0, ptr %56, align 8, !tbaa !54
  %57 = getelementptr inbounds nuw i8, ptr %0, i64 16
  store i64 %54, ptr %57, align 8, !tbaa !55
  %58 = getelementptr inbounds nuw i8, ptr %0, i64 124
  store i32 772, ptr %58, align 4, !tbaa !56
  %59 = add nuw nsw i64 %spec.select, 16
  store i64 %59, ptr %0, align 8, !tbaa !57
  br label %60

60:                                               ; preds = %26, %49, %48, %43, %25, %21, %15, %8
  %.060 = phi i32 [ -28928, %8 ], [ -28928, %15 ], [ %20, %21 ], [ %24, %25 ], [ %42, %43 ], [ %47, %48 ], [ 0, %49 ], [ -27648, %26 ]
  ret i32 %.060
}